target datalayout = "e-m:e-p270:32:32-p271:32:32-p272:64:64-i64:64-i128:128-f80:128-n8:16:32:64-S128"
target triple = "x86_64-pc-linux-gnu"

%struct.yyjson_alc = type { ptr, ptr, ptr, ptr }
%struct.pool_ctx = type { i64, ptr }
%struct.pool_chunk = type { i64, ptr }

@YYJSON_NULL_ALC = internal constant %struct.yyjson_alc { ptr @null_malloc, ptr @null_realloc, ptr @null_free, ptr null }, align 8

; Function Attrs: alwaysinline nounwind uwtable
define internal zeroext i1 @size_is_pow2(i64 noundef %0) #4 {
  %2 = alloca i64, align 8
  store i64 %0, ptr %2, align 8, !tbaa !10
  %3 = load i64, ptr %2, align 8, !tbaa !10
  %4 = load i64, ptr %2, align 8, !tbaa !10
  %5 = sub i64 %4, 1
  %6 = and i64 %3, %5
  %7 = icmp eq i64 %6, 0
  ret i1 %7
}

; Function Attrs: alwaysinline nounwind uwtable
define internal i64 @size_align_up(i64 noundef %0, i64 noundef %1) #4 {
  %3 = alloca i64, align 8
  %4 = alloca i64, align 8
  %5 = alloca i64, align 8
  store i64 %0, ptr %4, align 8, !tbaa !10
  store i64 %1, ptr %5, align 8, !tbaa !10
  %6 = load i64, ptr %5, align 8, !tbaa !10
  %7 = call zeroext i1 @size_is_pow2(i64 noundef %6)
  br i1 %7, label %8, label %17

8:                                                ; preds = %2
  %9 = load i64, ptr %4, align 8, !tbaa !10
  %10 = load i64, ptr %5, align 8, !tbaa !10
  %11 = sub i64 %10, 1
  %12 = add i64 %9, %11
  %13 = load i64, ptr %5, align 8, !tbaa !10
  %14 = sub i64 %13, 1
  %15 = xor i64 %14, -1
  %16 = and i64 %12, %15
  store i64 %16, ptr %3, align 8
  br label %29

17:                                               ; preds = %2
  %18 = load i64, ptr %4, align 8, !tbaa !10
  %19 = load i64, ptr %5, align 8, !tbaa !10
  %20 = add i64 %18, %19
  %21 = load i64, ptr %4, align 8, !tbaa !10
  %22 = load i64, ptr %5, align 8, !tbaa !10
  %23 = add i64 %21, %22
  %24 = sub i64 %23, 1
  %25 = load i64, ptr %5, align 8, !tbaa !10
  %26 = urem i64 %24, %25
  %27 = sub i64 %20, %26
  %28 = sub i64 %27, 1
  store i64 %28, ptr %3, align 8
  br label %29

29:                                               ; preds = %17, %8
  %30 = load i64, ptr %3, align 8
  ret i64 %30
}

; Function Attrs: alwaysinline nounwind uwtable
define internal i64 @size_align_down(i64 noundef %0, i64 noundef %1) #4 {
  %3 = alloca i64, align 8
  %4 = alloca i64, align 8
  %5 = alloca i64, align 8
  store i64 %0, ptr %4, align 8, !tbaa !10
  store i64 %1, ptr %5, align 8, !tbaa !10
  %6 = load i64, ptr %5, align 8, !tbaa !10
  %7 = call zeroext i1 @size_is_pow2(i64 noundef %6)
  br i1 %7, label %8, label %14

8:                                                ; preds = %2
  %9 = load i64, ptr %4, align 8, !tbaa !10
  %10 = load i64, ptr %5, align 8, !tbaa !10
  %11 = sub i64 %10, 1
  %12 = xor i64 %11, -1
  %13 = and i64 %9, %12
  store i64 %13, ptr %3, align 8
  br label %20

14:                                               ; preds = %2
  %15 = load i64, ptr %4, align 8, !tbaa !10
  %16 = load i64, ptr %4, align 8, !tbaa !10
  %17 = load i64, ptr %5, align 8, !tbaa !10
  %18 = urem i64 %16, %17
  %19 = sub i64 %15, %18
  store i64 %19, ptr %3, align 8
  br label %20

20:                                               ; preds = %14, %8
  %21 = load i64, ptr %3, align 8
  ret i64 %21
}

; Function Attrs: alwaysinline nounwind uwtable
define internal ptr @mem_align_up(ptr noundef %0, i64 noundef %1) #4 {
  %3 = alloca ptr, align 8
  %4 = alloca i64, align 8
  %5 = alloca i64, align 8
  store ptr %0, ptr %3, align 8, !tbaa !9
  store i64 %1, ptr %4, align 8, !tbaa !10
  call void @llvm.lifetime.start.p0(i64 8, ptr %5) #13
  call void @llvm.memcpy.p0.p0.i64(ptr align 8 %5, ptr align 8 %3, i64 8, i1 false)
  %6 = load i64, ptr %5, align 8, !tbaa !10
  %7 = load i64, ptr %4, align 8, !tbaa !10
  %8 = call i64 @size_align_up(i64 noundef %6, i64 noundef %7)
  store i64 %8, ptr %5, align 8, !tbaa !10
  call void @llvm.memcpy.p0.p0.i64(ptr align 8 %3, ptr align 8 %5, i64 8, i1 false)
  %9 = load ptr, ptr %3, align 8, !tbaa !9
  call void @llvm.lifetime.end.p0(i64 8, ptr %5) #13
  ret ptr %9
}

; Function Attrs: nounwind uwtable
define dso_local zeroext i1 @yyjson_alc_pool_init(ptr noundef %0, ptr noundef %1, i64 noundef %2) #0 {
  %4 = alloca i1, align 1
  %5 = alloca ptr, align 8
  %6 = alloca ptr, align 8
  %7 = alloca i64, align 8
  %8 = alloca ptr, align 8
  %9 = alloca ptr, align 8
  %10 = alloca i32, align 4
  store ptr %0, ptr %5, align 8, !tbaa !4
  store ptr %1, ptr %6, align 8, !tbaa !9
  store i64 %2, ptr %7, align 8, !tbaa !10
  call void @llvm.lifetime.start.p0(i64 8, ptr %8) #13
  call void @llvm.lifetime.start.p0(i64 8, ptr %9) #13
  %11 = load ptr, ptr %5, align 8, !tbaa !4
  %12 = icmp ne ptr %11, null
  %13 = xor i1 %12, true
  %14 = xor i1 %13, true
  %15 = xor i1 %14, true
  %16 = zext i1 %15 to i32
  %17 = sext i32 %16 to i64
  %18 = call i64 @llvm.expect.i64(i64 %17, i64 0)
  %19 = icmp ne i64 %18, 0
  br i1 %19, label %20, label %21

20:                                               ; preds = %3
  store i1 false, ptr %4, align 1
  store i32 1, ptr %10, align 4
  br label %72

21:                                               ; preds = %3
  %22 = load ptr, ptr %5, align 8, !tbaa !4
  call void @llvm.memcpy.p0.p0.i64(ptr align 8 %22, ptr align 8 @YYJSON_NULL_ALC, i64 32, i1 false), !tbaa.struct !12
  %23 = load i64, ptr %7, align 8, !tbaa !10
  %24 = icmp ult i64 %23, 64
  br i1 %24, label %25, label %26

25:                                               ; preds = %21
  store i1 false, ptr %4, align 1
  store i32 1, ptr %10, align 4
  br label %72

26:                                               ; preds = %21
  %27 = load ptr, ptr %6, align 8, !tbaa !9
  %28 = call ptr @mem_align_up(ptr noundef %27, i64 noundef 16)
  store ptr %28, ptr %9, align 8, !tbaa !13
  %29 = load ptr, ptr %9, align 8, !tbaa !13
  %30 = icmp ne ptr %29, null
  %31 = xor i1 %30, true
  %32 = xor i1 %31, true
  %33 = xor i1 %32, true
  %34 = zext i1 %33 to i32
  %35 = sext i32 %34 to i64
  %36 = call i64 @llvm.expect.i64(i64 %35, i64 0)
  %37 = icmp ne i64 %36, 0
  br i1 %37, label %38, label %39

38:                                               ; preds = %26
  store i1 false, ptr %4, align 1
  store i32 1, ptr %10, align 4
  br label %72

39:                                               ; preds = %26
  %40 = load ptr, ptr %9, align 8, !tbaa !13
  %41 = load ptr, ptr %6, align 8, !tbaa !9
  %42 = ptrtoint ptr %40 to i64
  %43 = ptrtoint ptr %41 to i64
  %44 = sub i64 %42, %43
  %45 = load i64, ptr %7, align 8, !tbaa !10
  %46 = sub i64 %45, %44
  store i64 %46, ptr %7, align 8, !tbaa !10
  %47 = load i64, ptr %7, align 8, !tbaa !10
  %48 = call i64 @size_align_down(i64 noundef %47, i64 noundef 16)
  store i64 %48, ptr %7, align 8, !tbaa !10
  %49 = load ptr, ptr %9, align 8, !tbaa !13
  %50 = getelementptr inbounds %struct.pool_ctx, ptr %49, i64 1
  store ptr %50, ptr %8, align 8, !tbaa !15
  %51 = load i64, ptr %7, align 8, !tbaa !10
  %52 = sub i64 %51, 16
  %53 = load ptr, ptr %8, align 8, !tbaa !15
  %54 = getelementptr inbounds nuw %struct.pool_chunk, ptr %53, i32 0, i32 0
  store i64 %52, ptr %54, align 8, !tbaa !17
  %55 = load ptr, ptr %8, align 8, !tbaa !15
  %56 = getelementptr inbounds nuw %struct.pool_chunk, ptr %55, i32 0, i32 1
  store ptr null, ptr %56, align 8, !tbaa !19
  %57 = load i64, ptr %7, align 8, !tbaa !10
  %58 = load ptr, ptr %9, align 8, !tbaa !13
  %59 = getelementptr inbounds nuw %struct.pool_ctx, ptr %58, i32 0, i32 0
  store i64 %57, ptr %59, align 8, !tbaa !20
  %60 = load ptr, ptr %8, align 8, !tbaa !15
  %61 = load ptr, ptr %9, align 8, !tbaa !13
  %62 = getelementptr inbounds nuw %struct.pool_ctx, ptr %61, i32 0, i32 1
  store ptr %60, ptr %62, align 8, !tbaa !22
  %63 = load ptr, ptr %5, align 8, !tbaa !4
  %64 = getelementptr inbounds nuw %struct.yyjson_alc, ptr %63, i32 0, i32 0
  store ptr @pool_malloc, ptr %64, align 8, !tbaa !23
  %65 = load ptr, ptr %5, align 8, !tbaa !4
  %66 = getelementptr inbounds nuw %struct.yyjson_alc, ptr %65, i32 0, i32 1
  store ptr @pool_realloc, ptr %66, align 8, !tbaa !25
  %67 = load ptr, ptr %5, align 8, !tbaa !4
  %68 = getelementptr inbounds nuw %struct.yyjson_alc, ptr %67, i32 0, i32 2
  store ptr @pool_free, ptr %68, align 8, !tbaa !26
  %69 = load ptr, ptr %9, align 8, !tbaa !13
  %70 = load ptr, ptr %5, align 8, !tbaa !4
  %71 = getelementptr inbounds nuw %struct.yyjson_alc, ptr %70, i32 0, i32 3
  store ptr %69, ptr %71, align 8, !tbaa !27
  store i1 true, ptr %4, align 1
  store i32 1, ptr %10, align 4
  br label %72

72:                                               ; preds = %39, %38, %25, %20
  call void @llvm.lifetime.end.p0(i64 8, ptr %9) #13
  call void @llvm.lifetime.end.p0(i64 8, ptr %8) #13
  %73 = load i1, ptr %4, align 1
  ret i1 %73
}