; Function Attrs: mustprogress nofree norecurse nosync nounwind willreturn memory(write, argmem: readwrite, inaccessiblemem: none) uwtable
define dso_local noundef zeroext i1 @yyjson_alc_pool_init(ptr noundef writeonly captures(address_is_null) %0, ptr noundef %1, i64 noundef %2) local_unnamed_addr #1 {
  %.not = icmp eq ptr %0, null
  br i1 %.not, label %19, label %4, !prof !4

4:                                                ; preds = %3
  tail call void @llvm.memcpy.p0.p0.i64(ptr noundef nonnull align 8 dereferenceable(32) %0, ptr noundef nonnull align 8 dereferenceable(32) @YYJSON_NULL_ALC, i64 32, i1 false), !tbaa.struct !5
  %5 = icmp ult i64 %2, 64
  br i1 %5, label %19, label %size_align_up.exit

size_align_up.exit:                               ; preds = %4
  %6 = ptrtoint ptr %1 to i64
  %7 = add i64 %6, 15
  %8 = and i64 %7, -16
  %.not23 = icmp eq i64 %8, 0
  br i1 %.not23, label %19, label %9, !prof !4

9:                                                ; preds = %size_align_up.exit
  %10 = inttoptr i64 %8 to ptr
  %.neg = add i64 %2, %6
  %11 = sub i64 %.neg, %8
  %.0.i = and i64 %11, -16
  %12 = getelementptr inbounds nuw i8, ptr %10, i64 16
  %13 = add i64 %.0.i, -16
  store i64 %13, ptr %12, align 16, !tbaa !10
  %14 = getelementptr inbounds nuw i8, ptr %10, i64 24
  store ptr null, ptr %14, align 8, !tbaa !14
  store i64 %.0.i, ptr %10, align 16, !tbaa !15
  %15 = getelementptr inbounds nuw i8, ptr %10, i64 8
  store ptr %12, ptr %15, align 8, !tbaa !17
  store ptr @pool_malloc, ptr %0, align 8, !tbaa !18
  %16 = getelementptr inbounds nuw i8, ptr %0, i64 8
  store ptr @pool_realloc, ptr %16, align 8, !tbaa !20
  %17 = getelementptr inbounds nuw i8, ptr %0, i64 16
  store ptr @pool_free, ptr %17, align 8, !tbaa !21
  %18 = getelementptr inbounds nuw i8, ptr %0, i64 24
  store ptr %10, ptr %18, align 8, !tbaa !22
  br label %19

19:                                               ; preds = %size_align_up.exit, %4, %3, %9
  %.0 = phi i1 [ true, %9 ], [ false, %3 ], [ false, %4 ], [ false, %size_align_up.exit ]
  ret i1 %.0
}